target datalayout = "e-m:e-p270:32:32-p271:32:32-p272:64:64-i64:64-i128:128-f80:128-n8:16:32:64-S128"
target triple = "x86_64-pc-linux-gnu"

; Function Attrs: nounwind uwtable
define internal void @rgb24ToUV_c(ptr noundef %0, ptr noundef %1, ptr noundef %2, ptr noundef %3, ptr noundef %4, i32 noundef %5, ptr noundef %6, ptr noundef %7) #2 {
  %9 = alloca ptr, align 8
  %10 = alloca ptr, align 8
  %11 = alloca ptr, align 8
  %12 = alloca ptr, align 8
  %13 = alloca ptr, align 8
  %14 = alloca i32, align 4
  %15 = alloca ptr, align 8
  %16 = alloca ptr, align 8
  %17 = alloca ptr, align 8
  %18 = alloca ptr, align 8
  %19 = alloca i32, align 4
  %20 = alloca i32, align 4
  %21 = alloca i32, align 4
  %22 = alloca i32, align 4
  %23 = alloca i32, align 4
  %24 = alloca i32, align 4
  %25 = alloca i32, align 4
  %26 = alloca i32, align 4
  %27 = alloca i32, align 4
  %28 = alloca i32, align 4
  store ptr %0, ptr %9, align 8, !tbaa !34
  store ptr %1, ptr %10, align 8, !tbaa !34
  store ptr %2, ptr %11, align 8, !tbaa !34
  store ptr %3, ptr %12, align 8, !tbaa !34
  store ptr %4, ptr %13, align 8, !tbaa !34
  store i32 %5, ptr %14, align 4, !tbaa !30
  store ptr %6, ptr %15, align 8, !tbaa !35
  store ptr %7, ptr %16, align 8, !tbaa !31
  call void @llvm.lifetime.start.p0(i64 8, ptr %17) #9
  %29 = load ptr, ptr %9, align 8, !tbaa !34
  store ptr %29, ptr %17, align 8, !tbaa !43
  call void @llvm.lifetime.start.p0(i64 8, ptr %18) #9
  %30 = load ptr, ptr %10, align 8, !tbaa !34
  store ptr %30, ptr %18, align 8, !tbaa !43
  call void @llvm.lifetime.start.p0(i64 4, ptr %19) #9
  call void @llvm.lifetime.start.p0(i64 4, ptr %20) #9
  %31 = load ptr, ptr %15, align 8, !tbaa !35
  %32 = getelementptr inbounds i32, ptr %31, i64 3
  %33 = load i32, ptr %32, align 4, !tbaa !30
  store i32 %33, ptr %20, align 4, !tbaa !30
  call void @llvm.lifetime.start.p0(i64 4, ptr %21) #9
  %34 = load ptr, ptr %15, align 8, !tbaa !35
  %35 = getelementptr inbounds i32, ptr %34, i64 4
  %36 = load i32, ptr %35, align 4, !tbaa !30
  store i32 %36, ptr %21, align 4, !tbaa !30
  call void @llvm.lifetime.start.p0(i64 4, ptr %22) #9
  %37 = load ptr, ptr %15, align 8, !tbaa !35
  %38 = getelementptr inbounds i32, ptr %37, i64 5
  %39 = load i32, ptr %38, align 4, !tbaa !30
  store i32 %39, ptr %22, align 4, !tbaa !30
  call void @llvm.lifetime.start.p0(i64 4, ptr %23) #9
  %40 = load ptr, ptr %15, align 8, !tbaa !35
  %41 = getelementptr inbounds i32, ptr %40, i64 6
  %42 = load i32, ptr %41, align 4, !tbaa !30
  store i32 %42, ptr %23, align 4, !tbaa !30
  call void @llvm.lifetime.start.p0(i64 4, ptr %24) #9
  %43 = load ptr, ptr %15, align 8, !tbaa !35
  %44 = getelementptr inbounds i32, ptr %43, i64 7
  %45 = load i32, ptr %44, align 4, !tbaa !30
  store i32 %45, ptr %24, align 4, !tbaa !30
  call void @llvm.lifetime.start.p0(i64 4, ptr %25) #9
  %46 = load ptr, ptr %15, align 8, !tbaa !35
  %47 = getelementptr inbounds i32, ptr %46, i64 8
  %48 = load i32, ptr %47, align 4, !tbaa !30
  store i32 %48, ptr %25, align 4, !tbaa !30
  store i32 0, ptr %19, align 4, !tbaa !30
  br label %49

49:                                               ; preds = %116, %8
  %50 = load i32, ptr %19, align 4, !tbaa !30
  %51 = load i32, ptr %14, align 4, !tbaa !30
  %52 = icmp slt i32 %50, %51
  br i1 %52, label %53, label %119

53:                                               ; preds = %49
  call void @llvm.lifetime.start.p0(i64 4, ptr %26) #9
  %54 = load ptr, ptr %12, align 8, !tbaa !34
  %55 = load i32, ptr %19, align 4, !tbaa !30
  %56 = mul nsw i32 3, %55
  %57 = add nsw i32 %56, 0
  %58 = sext i32 %57 to i64
  %59 = getelementptr inbounds i8, ptr %54, i64 %58
  %60 = load i8, ptr %59, align 1, !tbaa !36
  %61 = zext i8 %60 to i32
  store i32 %61, ptr %26, align 4, !tbaa !30
  call void @llvm.lifetime.start.p0(i64 4, ptr %27) #9
  %62 = load ptr, ptr %12, align 8, !tbaa !34
  %63 = load i32, ptr %19, align 4, !tbaa !30
  %64 = mul nsw i32 3, %63
  %65 = add nsw i32 %64, 1
  %66 = sext i32 %65 to i64
  %67 = getelementptr inbounds i8, ptr %62, i64 %66
  %68 = load i8, ptr %67, align 1, !tbaa !36
  %69 = zext i8 %68 to i32
  store i32 %69, ptr %27, align 4, !tbaa !30
  call void @llvm.lifetime.start.p0(i64 4, ptr %28) #9
  %70 = load ptr, ptr %12, align 8, !tbaa !34
  %71 = load i32, ptr %19, align 4, !tbaa !30
  %72 = mul nsw i32 3, %71
  %73 = add nsw i32 %72, 2
  %74 = sext i32 %73 to i64
  %75 = getelementptr inbounds i8, ptr %70, i64 %74
  %76 = load i8, ptr %75, align 1, !tbaa !36
  %77 = zext i8 %76 to i32
  store i32 %77, ptr %28, align 4, !tbaa !30
  %78 = load i32, ptr %20, align 4, !tbaa !30
  %79 = load i32, ptr %26, align 4, !tbaa !30
  %80 = mul nsw i32 %78, %79
  %81 = load i32, ptr %21, align 4, !tbaa !30
  %82 = load i32, ptr %27, align 4, !tbaa !30
  %83 = mul nsw i32 %81, %82
  %84 = add nsw i32 %80, %83
  %85 = load i32, ptr %22, align 4, !tbaa !30
  %86 = load i32, ptr %28, align 4, !tbaa !30
  %87 = mul nsw i32 %85, %86
  %88 = add nsw i32 %84, %87
  %89 = add nsw i32 %88, 4194304
  %90 = add nsw i32 %89, 256
  %91 = ashr i32 %90, 9
  %92 = trunc i32 %91 to i16
  %93 = load ptr, ptr %17, align 8, !tbaa !43
  %94 = load i32, ptr %19, align 4, !tbaa !30
  %95 = sext i32 %94 to i64
  %96 = getelementptr inbounds i16, ptr %93, i64 %95
  store i16 %92, ptr %96, align 2, !tbaa !44
  %97 = load i32, ptr %23, align 4, !tbaa !30
  %98 = load i32, ptr %26, align 4, !tbaa !30
  %99 = mul nsw i32 %97, %98
  %100 = load i32, ptr %24, align 4, !tbaa !30
  %101 = load i32, ptr %27, align 4, !tbaa !30
  %102 = mul nsw i32 %100, %101
  %103 = add nsw i32 %99, %102
  %104 = load i32, ptr %25, align 4, !tbaa !30
  %105 = load i32, ptr %28, align 4, !tbaa !30
  %106 = mul nsw i32 %104, %105
  %107 = add nsw i32 %103, %106
  %108 = add nsw i32 %107, 4194304
  %109 = add nsw i32 %108, 256
  %110 = ashr i32 %109, 9
  %111 = trunc i32 %110 to i16
  %112 = load ptr, ptr %18, align 8, !tbaa !43
  %113 = load i32, ptr %19, align 4, !tbaa !30
  %114 = sext i32 %113 to i64
  %115 = getelementptr inbounds i16, ptr %112, i64 %114
  store i16 %111, ptr %115, align 2, !tbaa !44
  call void @llvm.lifetime.end.p0(i64 4, ptr %28) #9
  call void @llvm.lifetime.end.p0(i64 4, ptr %27) #9
  call void @llvm.lifetime.end.p0(i64 4, ptr %26) #9
  br label %116

116:                                              ; preds = %53
  %117 = load i32, ptr %19, align 4, !tbaa !30
  %118 = add nsw i32 %117, 1
  store i32 %118, ptr %19, align 4, !tbaa !30
  br label %49, !llvm.loop !73

119:                                              ; preds = %49
  call void @llvm.lifetime.end.p0(i64 4, ptr %25) #9
  call void @llvm.lifetime.end.p0(i64 4, ptr %24) #9
  call void @llvm.lifetime.end.p0(i64 4, ptr %23) #9
  call void @llvm.lifetime.end.p0(i64 4, ptr %22) #9
  call void @llvm.lifetime.end.p0(i64 4, ptr %21) #9
  call void @llvm.lifetime.end.p0(i64 4, ptr %20) #9
  call void @llvm.lifetime.end.p0(i64 4, ptr %19) #9
  call void @llvm.lifetime.end.p0(i64 8, ptr %18) #9
  call void @llvm.lifetime.end.p0(i64 8, ptr %17) #9
  ret void
}