; Function Attrs: nofree norecurse nosync nounwind memory(argmem: readwrite) uwtable
define internal void @rgb24ToUV_c(ptr noundef writeonly captures(none) %0, ptr noundef writeonly captures(none) %1, ptr readnone captures(none) %2, ptr noundef readonly captures(none) %3, ptr readnone captures(none) %4, i32 noundef %5, ptr noundef readonly captures(none) %6, ptr readnone captures(none) %7) #1 {
  %9 = getelementptr inbounds nuw i8, ptr %6, i64 12
  %10 = load i32, ptr %9, align 4, !tbaa !42
  %11 = getelementptr inbounds nuw i8, ptr %6, i64 16
  %12 = load i32, ptr %11, align 4, !tbaa !42
  %13 = getelementptr inbounds nuw i8, ptr %6, i64 20
  %14 = load i32, ptr %13, align 4, !tbaa !42
  %15 = getelementptr inbounds nuw i8, ptr %6, i64 24
  %16 = load i32, ptr %15, align 4, !tbaa !42
  %17 = getelementptr inbounds nuw i8, ptr %6, i64 28
  %18 = load i32, ptr %17, align 4, !tbaa !42
  %19 = getelementptr inbounds nuw i8, ptr %6, i64 32
  %20 = load i32, ptr %19, align 4, !tbaa !42
  %21 = icmp sgt i32 %5, 0
  br i1 %21, label %.lr.ph.preheader, label %._crit_edge

.lr.ph.preheader:                                 ; preds = %8
  %wide.trip.count = zext nneg i32 %5 to i64
  br label %.lr.ph

.lr.ph:                                           ; preds = %.lr.ph.preheader, %.lr.ph
  %indvars.iv = phi i64 [ 0, %.lr.ph.preheader ], [ %indvars.iv.next, %.lr.ph ]
  %22 = mul nuw nsw i64 %indvars.iv, 3
  %23 = getelementptr inbounds nuw i8, ptr %3, i64 %22
  %24 = load i8, ptr %23, align 1, !tbaa !34
  %25 = zext i8 %24 to i32
  %26 = getelementptr inbounds nuw i8, ptr %23, i64 1
  %27 = load i8, ptr %26, align 1, !tbaa !34
  %28 = zext i8 %27 to i32
  %29 = getelementptr inbounds nuw i8, ptr %23, i64 2
  %30 = load i8, ptr %29, align 1, !tbaa !34
  %31 = zext i8 %30 to i32
  %32 = mul nsw i32 %10, %25
  %33 = mul nsw i32 %12, %28
  %34 = mul nsw i32 %14, %31
  %35 = add i32 %32, 4194560
  %36 = add i32 %35, %33
  %37 = add i32 %36, %34
  %38 = lshr i32 %37, 9
  %39 = trunc i32 %38 to i16
  %40 = getelementptr inbounds nuw i16, ptr %0, i64 %indvars.iv
  store i16 %39, ptr %40, align 2, !tbaa !43
  %41 = mul nsw i32 %16, %25
  %42 = mul nsw i32 %18, %28
  %43 = mul nsw i32 %20, %31
  %44 = add i32 %41, 4194560
  %45 = add i32 %44, %42
  %46 = add i32 %45, %43
  %47 = lshr i32 %46, 9
  %48 = trunc i32 %47 to i16
  %49 = getelementptr inbounds nuw i16, ptr %1, i64 %indvars.iv
  store i16 %48, ptr %49, align 2, !tbaa !43
  %indvars.iv.next = add nuw nsw i64 %indvars.iv, 1
  %exitcond.not = icmp eq i64 %indvars.iv.next, %wide.trip.count
  br i1 %exitcond.not, label %._crit_edge, label %.lr.ph, !llvm.loop !88

._crit_edge:                                      ; preds = %.lr.ph, %8
  ret void
}